; ModuleID = '63/1373.c'
source_filename = "63/1373.c"
target datalayout = "e-m:e-p270:32:32-p271:32:32-p272:64:64-i64:64-f80:128-n8:16:32:64-S128"
target triple = "x86_64-pc-linux-gnu"

@.str = private unnamed_addr constant [6 x i8] c"%d %d\00", align 1
@.str.1 = private unnamed_addr constant [3 x i8] c"%d\00", align 1
@.str.2 = private unnamed_addr constant [2 x i8] c"\0A\00", align 1
@.str.3 = private unnamed_addr constant [4 x i8] c" %d\00", align 1

; Function Attrs: noinline nounwind uwtable
define dso_local i32 @main() #0 {
  %1 = alloca i32, align 4
  %2 = alloca i32, align 4
  %3 = alloca i32, align 4
  %4 = alloca i32, align 4
  %5 = alloca i32, align 4
  %6 = alloca i32, align 4
  %7 = alloca i32, align 4
  %8 = alloca [100 x [100 x i32]], align 16
  %9 = alloca [100 x [100 x i32]], align 16
  %10 = alloca [100 x [100 x i32]], align 16
  %11 = alloca i32, align 4
  %12 = alloca i32, align 4
  %13 = alloca i32, align 4
  %14 = alloca i32, align 4
  %15 = alloca i32, align 4
  %16 = alloca i32, align 4
  %17 = alloca i32, align 4
  %18 = alloca i32, align 4
  %19 = alloca i32, align 4
  store i32 0, i32* %1, align 4
  %20 = bitcast [100 x [100 x i32]]* %10 to i8*
  call void @llvm.memset.p0i8.i64(i8* align 16 %20, i8 0, i64 40000, i1 false)
  %21 = call i32 (i8*, ...) @__isoc99_scanf(i8* getelementptr inbounds ([6 x i8], [6 x i8]* @.str, i64 0, i64 0), i32* %2, i32* %3)
  store i32 0, i32* %11, align 4
  br label %22

22:                                               ; preds = %43, %0
  %23 = load i32, i32* %11, align 4
  %24 = load i32, i32* %2, align 4
  %25 = icmp slt i32 %23, %24
  br i1 %25, label %26, label %46

26:                                               ; preds = %22
  store i32 0, i32* %12, align 4
  br label %27

27:                                               ; preds = %39, %26
  %28 = load i32, i32* %12, align 4
  %29 = load i32, i32* %3, align 4
  %30 = icmp slt i32 %28, %29
  br i1 %30, label %31, label %42

31:                                               ; preds = %27
  %32 = load i32, i32* %11, align 4
  %33 = sext i32 %32 to i64
  %34 = getelementptr inbounds [100 x [100 x i32]], [100 x [100 x i32]]* %8, i64 0, i64 %33
  %35 = load i32, i32* %12, align 4
  %36 = sext i32 %35 to i64
  %37 = getelementptr inbounds [100 x i32], [100 x i32]* %34, i64 0, i64 %36
  %38 = call i32 (i8*, ...) @__isoc99_scanf(i8* getelementptr inbounds ([3 x i8], [3 x i8]* @.str.1, i64 0, i64 0), i32* %37)
  br label %39

39:                                               ; preds = %31
  %40 = load i32, i32* %12, align 4
  %41 = add nsw i32 %40, 1
  store i32 %41, i32* %12, align 4
  br label %27

42:                                               ; preds = %27
  br label %43

43:                                               ; preds = %42
  %44 = load i32, i32* %11, align 4
  %45 = add nsw i32 %44, 1
  store i32 %45, i32* %11, align 4
  br label %22

46:                                               ; preds = %22
  %47 = call i32 (i8*, ...) @__isoc99_scanf(i8* getelementptr inbounds ([6 x i8], [6 x i8]* @.str, i64 0, i64 0), i32* %4, i32* %5)
  store i32 0, i32* %13, align 4
  br label %48

48:                                               ; preds = %69, %46
  %49 = load i32, i32* %13, align 4
  %50 = load i32, i32* %4, align 4
  %51 = icmp slt i32 %49, %50
  br i1 %51, label %52, label %72

52:                                               ; preds = %48
  store i32 0, i32* %14, align 4
  br label %53

53:                                               ; preds = %65, %52
  %54 = load i32, i32* %14, align 4
  %55 = load i32, i32* %5, align 4
  %56 = icmp slt i32 %54, %55
  br i1 %56, label %57, label %68

57:                                               ; preds = %53
  %58 = load i32, i32* %13, align 4
  %59 = sext i32 %58 to i64
  %60 = getelementptr inbounds [100 x [100 x i32]], [100 x [100 x i32]]* %9, i64 0, i64 %59
  %61 = load i32, i32* %14, align 4
  %62 = sext i32 %61 to i64
  %63 = getelementptr inbounds [100 x i32], [100 x i32]* %60, i64 0, i64 %62
  %64 = call i32 (i8*, ...) @__isoc99_scanf(i8* getelementptr inbounds ([3 x i8], [3 x i8]* @.str.1, i64 0, i64 0), i32* %63)
  br label %65

65:                                               ; preds = %57
  %66 = load i32, i32* %14, align 4
  %67 = add nsw i32 %66, 1
  store i32 %67, i32* %14, align 4
  br label %53

68:                                               ; preds = %53
  br label %69

69:                                               ; preds = %68
  %70 = load i32, i32* %13, align 4
  %71 = add nsw i32 %70, 1
  store i32 %71, i32* %13, align 4
  br label %48

72:                                               ; preds = %48
  store i32 0, i32* %15, align 4
  br label %73

73:                                               ; preds = %119, %72
  %74 = load i32, i32* %15, align 4
  %75 = load i32, i32* %2, align 4
  %76 = icmp slt i32 %74, %75
  br i1 %76, label %77, label %122

77:                                               ; preds = %73
  store i32 0, i32* %16, align 4
  br label %78

78:                                               ; preds = %115, %77
  %79 = load i32, i32* %16, align 4
  %80 = load i32, i32* %5, align 4
  %81 = icmp slt i32 %79, %80
  br i1 %81, label %82, label %118

82:                                               ; preds = %78
  store i32 0, i32* %17, align 4
  br label %83

83:                                               ; preds = %111, %82
  %84 = load i32, i32* %17, align 4
  %85 = load i32, i32* %3, align 4
  %86 = icmp slt i32 %84, %85
  br i1 %86, label %87, label %114

87:                                               ; preds = %83
  %88 = load i32, i32* %15, align 4
  %89 = sext i32 %88 to i64
  %90 = getelementptr inbounds [100 x [100 x i32]], [100 x [100 x i32]]* %8, i64 0, i64 %89
  %91 = load i32, i32* %17, align 4
  %92 = sext i32 %91 to i64
  %93 = getelementptr inbounds [100 x i32], [100 x i32]* %90, i64 0, i64 %92
  %94 = load i32, i32* %93, align 4
  %95 = load i32, i32* %17, align 4
  %96 = sext i32 %95 to i64
  %97 = getelementptr inbounds [100 x [100 x i32]], [100 x [100 x i32]]* %9, i64 0, i64 %96
  %98 = load i32, i32* %16, align 4
  %99 = sext i32 %98 to i64
  %100 = getelementptr inbounds [100 x i32], [100 x i32]* %97, i64 0, i64 %99
  %101 = load i32, i32* %100, align 4
  %102 = mul nsw i32 %94, %101
  %103 = load i32, i32* %15, align 4
  %104 = sext i32 %103 to i64
  %105 = getelementptr inbounds [100 x [100 x i32]], [100 x [100 x i32]]* %10, i64 0, i64 %104
  %106 = load i32, i32* %16, align 4
  %107 = sext i32 %106 to i64
  %108 = getelementptr inbounds [100 x i32], [100 x i32]* %105, i64 0, i64 %107
  %109 = load i32, i32* %108, align 4
  %110 = add nsw i32 %109, %102
  store i32 %110, i32* %108, align 4
  br label %111

111:                                              ; preds = %87
  %112 = load i32, i32* %17, align 4
  %113 = add nsw i32 %112, 1
  store i32 %113, i32* %17, align 4
  br label %83

114:                                              ; preds = %83
  br label %115

115:                                              ; preds = %114
  %116 = load i32, i32* %16, align 4
  %117 = add nsw i32 %116, 1
  store i32 %117, i32* %16, align 4
  br label %78

118:                                              ; preds = %78
  br label %119

119:                                              ; preds = %118
  %120 = load i32, i32* %15, align 4
  %121 = add nsw i32 %120, 1
  store i32 %121, i32* %15, align 4
  br label %73

122:                                              ; preds = %73
  store i32 0, i32* %18, align 4
  br label %123

123:                                              ; preds = %163, %122
  %124 = load i32, i32* %18, align 4
  %125 = load i32, i32* %2, align 4
  %126 = icmp slt i32 %124, %125
  br i1 %126, label %127, label %166

127:                                              ; preds = %123
  %128 = load i32, i32* %18, align 4
  %129 = sext i32 %128 to i64
  %130 = getelementptr inbounds [100 x [100 x i32]], [100 x [100 x i32]]* %10, i64 0, i64 %129
  %131 = getelementptr inbounds [100 x i32], [100 x i32]* %130, i64 0, i64 0
  %132 = load i32, i32* %131, align 16
  %133 = call i32 (i8*, ...) @printf(i8* getelementptr inbounds ([3 x i8], [3 x i8]* @.str.1, i64 0, i64 0), i32 %132)
  %134 = load i32, i32* %5, align 4
  %135 = icmp eq i32 %134, 1
  br i1 %135, label %136, label %138

136:                                              ; preds = %127
  %137 = call i32 (i8*, ...) @printf(i8* getelementptr inbounds ([2 x i8], [2 x i8]* @.str.2, i64 0, i64 0))
  br label %138

138:                                              ; preds = %136, %127
  store i32 1, i32* %19, align 4
  br label %139

139:                                              ; preds = %159, %138
  %140 = load i32, i32* %19, align 4
  %141 = load i32, i32* %5, align 4
  %142 = icmp slt i32 %140, %141
  br i1 %142, label %143, label %162

143:                                              ; preds = %139
  %144 = load i32, i32* %18, align 4
  %145 = sext i32 %144 to i64
  %146 = getelementptr inbounds [100 x [100 x i32]], [100 x [100 x i32]]* %10, i64 0, i64 %145
  %147 = load i32, i32* %19, align 4
  %148 = sext i32 %147 to i64
  %149 = getelementptr inbounds [100 x i32], [100 x i32]* %146, i64 0, i64 %148
  %150 = load i32, i32* %149, align 4
  %151 = call i32 (i8*, ...) @printf(i8* getelementptr inbounds ([4 x i8], [4 x i8]* @.str.3, i64 0, i64 0), i32 %150)
  %152 = load i32, i32* %19, align 4
  %153 = load i32, i32* %5, align 4
  %154 = sub nsw i32 %153, 1
  %155 = icmp eq i32 %152, %154
  br i1 %155, label %156, label %158

156:                                              ; preds = %143
  %157 = call i32 (i8*, ...) @printf(i8* getelementptr inbounds ([2 x i8], [2 x i8]* @.str.2, i64 0, i64 0))
  br label %158

158:                                              ; preds = %156, %143
  br label %159

159:                                              ; preds = %158
  %160 = load i32, i32* %19, align 4
  %161 = add nsw i32 %160, 1
  store i32 %161, i32* %19, align 4
  br label %139

162:                                              ; preds = %139
  br label %163

163:                                              ; preds = %162
  %164 = load i32, i32* %18, align 4
  %165 = add nsw i32 %164, 1
  store i32 %165, i32* %18, align 4
  br label %123

166:                                              ; preds = %123
  ret i32 0
}

; Function Attrs: argmemonly nounwind willreturn
declare void @llvm.memset.p0i8.i64(i8* nocapture writeonly, i8, i64, i1 immarg) #1

declare dso_local i32 @__isoc99_scanf(i8*, ...) #2

declare dso_local i32 @printf(i8*, ...) #2


!llvm.module.flags = !{!0}
!llvm.ident = !{!1}

!0 = !{i32 1, !"wchar_size", i32 4}
!1 = !{!"clang version 10.0.0-4ubuntu1 "}
